target datalayout = "e-m:e-p270:32:32-p271:32:32-p272:64:64-i64:64-i128:128-f80:128-n8:16:32:64-S128"
target triple = "x86_64-pc-linux-gnu"

%struct.PROV_XOR_CTX = type { ptr }

@.str.2 = private unnamed_addr constant [31 x i8] c"../openssl/test/tls-provider.c\00", align 1
@dummy_group_names = internal global [50 x ptr] zeroinitializer, align 16

; Function Attrs: nounwind uwtable
define internal void @tls_prov_teardown(ptr noundef %0) #0 {
  %2 = alloca ptr, align 8
  %3 = alloca i32, align 4
  %4 = alloca ptr, align 8
  store ptr %0, ptr %2, align 8, !tbaa !13
  call void @llvm.lifetime.start.p0(i64 4, ptr %3) #8
  call void @llvm.lifetime.start.p0(i64 8, ptr %4) #8
  %5 = load ptr, ptr %2, align 8, !tbaa !13
  store ptr %5, ptr %4, align 8, !tbaa !13
  %6 = load ptr, ptr %4, align 8, !tbaa !13
  %7 = getelementptr inbounds nuw %struct.PROV_XOR_CTX, ptr %6, i32 0, i32 0
  %8 = load ptr, ptr %7, align 8, !tbaa !25
  call void @OSSL_LIB_CTX_free(ptr noundef %8)
  store i32 0, ptr %3, align 4, !tbaa !27
  br label %9

9:                                                ; preds = %20, %1
  %10 = load i32, ptr %3, align 4, !tbaa !27
  %11 = icmp slt i32 %10, 50
  br i1 %11, label %12, label %23

12:                                               ; preds = %9
  %13 = load i32, ptr %3, align 4, !tbaa !27
  %14 = sext i32 %13 to i64
  %15 = getelementptr inbounds [50 x ptr], ptr @dummy_group_names, i64 0, i64 %14
  %16 = load ptr, ptr %15, align 8, !tbaa !30
  call void @CRYPTO_free(ptr noundef %16, ptr noundef @.str.2, i32 noundef 3167)
  %17 = load i32, ptr %3, align 4, !tbaa !27
  %18 = sext i32 %17 to i64
  %19 = getelementptr inbounds [50 x ptr], ptr @dummy_group_names, i64 0, i64 %18
  store ptr null, ptr %19, align 8, !tbaa !30
  br label %20

20:                                               ; preds = %12
  %21 = load i32, ptr %3, align 4, !tbaa !27
  %22 = add nsw i32 %21, 1
  store i32 %22, ptr %3, align 4, !tbaa !27
  br label %9, !llvm.loop !32

23:                                               ; preds = %9
  %24 = load ptr, ptr %4, align 8, !tbaa !13
  call void @CRYPTO_free(ptr noundef %24, ptr noundef @.str.2, i32 noundef 3170)
  call void @llvm.lifetime.end.p0(i64 8, ptr %4) #8
  call void @llvm.lifetime.end.p0(i64 4, ptr %3) #8
  ret void
}