; Function Attrs: nounwind uwtable
define internal void @tls_prov_teardown(ptr noundef %0) #0 {
  %2 = load ptr, ptr %0, align 8, !tbaa !4
  tail call void @OSSL_LIB_CTX_free(ptr noundef %2) #16
  br label %3

3:                                                ; preds = %1, %3
  %indvars.iv = phi i64 [ 0, %1 ], [ %indvars.iv.next, %3 ]
  %4 = getelementptr inbounds nuw [50 x ptr], ptr @dummy_group_names, i64 0, i64 %indvars.iv
  %5 = load ptr, ptr %4, align 8, !tbaa !25
  tail call void @CRYPTO_free(ptr noundef %5, ptr noundef nonnull @.str.2, i32 noundef 3167) #16
  store ptr null, ptr %4, align 8, !tbaa !25
  %indvars.iv.next = add nuw nsw i64 %indvars.iv, 1
  %exitcond.not = icmp eq i64 %indvars.iv.next, 50
  br i1 %exitcond.not, label %6, label %3, !llvm.loop !27

6:                                                ; preds = %3
  tail call void @CRYPTO_free(ptr noundef nonnull %0, ptr noundef nonnull @.str.2, i32 noundef 3170) #16
  ret void
}